target datalayout = "e-m:e-p270:32:32-p271:32:32-p272:64:64-i64:64-i128:128-f80:128-n8:16:32:64-S128"
target triple = "x86_64-pc-linux-gnu"

%"struct.absl::debugging_internal::State" = type { ptr, ptr, i32, i32, i32, %"struct.absl::debugging_internal::ParseState" }
%"struct.absl::debugging_internal::ParseState" = type { i32, i32, i32, i32 }
%"class.absl::debugging_internal::(anonymous namespace)::ComplexityGuard" = type { ptr }

; Function Attrs: mustprogress nounwind uwtable
define internal noundef zeroext i1 @_ZN4absl18debugging_internalL8OptionalEb(i1 noundef zeroext %0) #3 {
  %2 = alloca i8, align 1
  %3 = zext i1 %0 to i8
  store i8 %3, ptr %2, align 1, !tbaa !31
  ret i1 true
}

; Function Attrs: mustprogress nounwind uwtable
define internal void @_ZN4absl18debugging_internal12_GLOBAL__N_115ComplexityGuardD2Ev(ptr noundef nonnull align 8 dereferenceable(8) %0) unnamed_addr #3 align 2 {
  %2 = alloca ptr, align 8
  store ptr %0, ptr %2, align 8, !tbaa !27
  %3 = load ptr, ptr %2, align 8
  %4 = getelementptr inbounds nuw %"class.absl::debugging_internal::(anonymous namespace)::ComplexityGuard", ptr %3, i32 0, i32 0
  %5 = load ptr, ptr %4, align 8, !tbaa !29
  %6 = getelementptr inbounds nuw %"struct.absl::debugging_internal::State", ptr %5, i32 0, i32 3
  %7 = load i32, ptr %6, align 4, !tbaa !20
  %8 = add nsw i32 %7, -1
  store i32 %8, ptr %6, align 4, !tbaa !20
  ret void
}

; Function Attrs: inlinehint mustprogress uwtable
define internal noundef zeroext i1 @_ZN4absl18debugging_internalL13ParseSimpleIdEPNS0_5StateE(ptr noundef %0) #7 {
  %2 = alloca ptr, align 8
  store ptr %0, ptr %2, align 8, !tbaa !16
  %3 = load ptr, ptr %2, align 8, !tbaa !16
  %4 = call noundef zeroext i1 @_ZN4absl18debugging_internalL15ParseSourceNameEPNS0_5StateE(ptr noundef %3)
  br i1 %4, label %5, label %9

5:                                                ; preds = %1
  %6 = load ptr, ptr %2, align 8, !tbaa !16
  %7 = call noundef zeroext i1 @_ZN4absl18debugging_internalL17ParseTemplateArgsEPNS0_5StateE(ptr noundef %6)
  %8 = call noundef zeroext i1 @_ZN4absl18debugging_internalL8OptionalEb(i1 noundef zeroext %7)
  br label %9

9:                                                ; preds = %5, %1
  %10 = phi i1 [ false, %1 ], [ %8, %5 ]
  ret i1 %10
}

; Function Attrs: mustprogress nounwind uwtable
define internal noundef zeroext i1 @_ZNK4absl18debugging_internal12_GLOBAL__N_115ComplexityGuard12IsTooComplexEv(ptr noundef nonnull align 8 dereferenceable(8) %0) #3 align 2 {
  %2 = alloca i1, align 1
  %3 = alloca ptr, align 8
  store ptr %0, ptr %3, align 8, !tbaa !27
  %4 = load ptr, ptr %3, align 8
  %5 = getelementptr inbounds nuw %"class.absl::debugging_internal::(anonymous namespace)::ComplexityGuard", ptr %4, i32 0, i32 0
  %6 = load ptr, ptr %5, align 8, !tbaa !29
  %7 = getelementptr inbounds nuw %"struct.absl::debugging_internal::State", ptr %6, i32 0, i32 3
  %8 = load i32, ptr %7, align 4, !tbaa !20
  %9 = icmp sgt i32 %8, 256
  br i1 %9, label %16, label %10

10:                                               ; preds = %1
  %11 = getelementptr inbounds nuw %"class.absl::debugging_internal::(anonymous namespace)::ComplexityGuard", ptr %4, i32 0, i32 0
  %12 = load ptr, ptr %11, align 8, !tbaa !29
  %13 = getelementptr inbounds nuw %"struct.absl::debugging_internal::State", ptr %12, i32 0, i32 4
  %14 = load i32, ptr %13, align 8, !tbaa !21
  %15 = icmp sgt i32 %14, 131072
  br i1 %15, label %16, label %17

16:                                               ; preds = %10, %1
  store i1 true, ptr %2, align 1
  br label %18

17:                                               ; preds = %10
  store i1 false, ptr %2, align 1
  br label %18

18:                                               ; preds = %17, %16
  %19 = load i1, ptr %2, align 1
  ret i1 %19
}

; Function Attrs: mustprogress nounwind uwtable
define internal void @_ZN4absl18debugging_internal12_GLOBAL__N_115ComplexityGuardC2EPNS0_5StateE(ptr noundef nonnull align 8 dereferenceable(8) %0, ptr noundef %1) unnamed_addr #3 align 2 {
  %3 = alloca ptr, align 8
  %4 = alloca ptr, align 8
  store ptr %0, ptr %3, align 8, !tbaa !27
  store ptr %1, ptr %4, align 8, !tbaa !16
  %5 = load ptr, ptr %3, align 8
  %6 = getelementptr inbounds nuw %"class.absl::debugging_internal::(anonymous namespace)::ComplexityGuard", ptr %5, i32 0, i32 0
  %7 = load ptr, ptr %4, align 8, !tbaa !16
  store ptr %7, ptr %6, align 8, !tbaa !29
  %8 = load ptr, ptr %4, align 8, !tbaa !16
  %9 = getelementptr inbounds nuw %"struct.absl::debugging_internal::State", ptr %8, i32 0, i32 3
  %10 = load i32, ptr %9, align 4, !tbaa !20
  %11 = add nsw i32 %10, 1
  store i32 %11, ptr %9, align 4, !tbaa !20
  %12 = load ptr, ptr %4, align 8, !tbaa !16
  %13 = getelementptr inbounds nuw %"struct.absl::debugging_internal::State", ptr %12, i32 0, i32 4
  %14 = load i32, ptr %13, align 8, !tbaa !21
  %15 = add nsw i32 %14, 1
  store i32 %15, ptr %13, align 8, !tbaa !21
  ret void
}

; Function Attrs: mustprogress uwtable
define internal noundef zeroext i1 @_ZN4absl18debugging_internalL29ParseUnresolvedQualifierLevelEPNS0_5StateE(ptr noundef %0) #0 personality ptr @__gxx_personality_v0 {
  %2 = alloca i1, align 1
  %3 = alloca ptr, align 8
  %4 = alloca %"class.absl::debugging_internal::(anonymous namespace)::ComplexityGuard", align 8
  %5 = alloca i32, align 4
  %6 = alloca ptr, align 8
  %7 = alloca i32, align 4
  %8 = alloca %"struct.absl::debugging_internal::ParseState", align 4
  store ptr %0, ptr %3, align 8, !tbaa !16
  call void @llvm.lifetime.start.p0(i64 8, ptr %4) #12
  %9 = load ptr, ptr %3, align 8, !tbaa !16
  call void @_ZN4absl18debugging_internal12_GLOBAL__N_115ComplexityGuardC2EPNS0_5StateE(ptr noundef nonnull align 8 dereferenceable(8) %4, ptr noundef %9)
  %10 = call noundef zeroext i1 @_ZNK4absl18debugging_internal12_GLOBAL__N_115ComplexityGuard12IsTooComplexEv(ptr noundef nonnull align 8 dereferenceable(8) %4)
  br i1 %10, label %11, label %12

11:                                               ; preds = %1
  store i1 false, ptr %2, align 1
  store i32 1, ptr %5, align 4
  br label %40

12:                                               ; preds = %1
  %13 = load ptr, ptr %3, align 8, !tbaa !16
  %14 = invoke noundef zeroext i1 @_ZN4absl18debugging_internalL13ParseSimpleIdEPNS0_5StateE(ptr noundef %13)
          to label %15 unwind label %17

15:                                               ; preds = %12
  br i1 %14, label %16, label %21

16:                                               ; preds = %15
  store i1 true, ptr %2, align 1
  store i32 1, ptr %5, align 4
  br label %40

17:                                               ; preds = %12
  %18 = landingpad { ptr, i32 }
          cleanup
  %19 = extractvalue { ptr, i32 } %18, 0
  store ptr %19, ptr %6, align 8
  %20 = extractvalue { ptr, i32 } %18, 1
  store i32 %20, ptr %7, align 4
  br label %42

21:                                               ; preds = %15
  call void @llvm.lifetime.start.p0(i64 16, ptr %8) #12
  %22 = load ptr, ptr %3, align 8, !tbaa !16
  %23 = getelementptr inbounds nuw %"struct.absl::debugging_internal::State", ptr %22, i32 0, i32 5
  call void @llvm.memcpy.p0.p0.i64(ptr align 4 %8, ptr align 4 %23, i64 16, i1 false), !tbaa.struct !39
  %24 = load ptr, ptr %3, align 8, !tbaa !16
  %25 = invoke noundef zeroext i1 @_ZN4absl18debugging_internalL17ParseSubstitutionEPNS0_5StateEb(ptr noundef %24, i1 noundef zeroext false)
          to label %26 unwind label %32

26:                                               ; preds = %21
  br i1 %25, label %27, label %36

27:                                               ; preds = %26
  %28 = load ptr, ptr %3, align 8, !tbaa !16
  %29 = invoke noundef zeroext i1 @_ZN4absl18debugging_internalL17ParseTemplateArgsEPNS0_5StateE(ptr noundef %28)
          to label %30 unwind label %32

30:                                               ; preds = %27
  br i1 %29, label %31, label %36

31:                                               ; preds = %30
  store i1 true, ptr %2, align 1
  store i32 1, ptr %5, align 4
  br label %39

32:                                               ; preds = %27, %21
  %33 = landingpad { ptr, i32 }
          cleanup
  %34 = extractvalue { ptr, i32 } %33, 0
  store ptr %34, ptr %6, align 8
  %35 = extractvalue { ptr, i32 } %33, 1
  store i32 %35, ptr %7, align 4
  call void @llvm.lifetime.end.p0(i64 16, ptr %8) #12
  br label %42

36:                                               ; preds = %30, %26
  %37 = load ptr, ptr %3, align 8, !tbaa !16
  %38 = getelementptr inbounds nuw %"struct.absl::debugging_internal::State", ptr %37, i32 0, i32 5
  call void @llvm.memcpy.p0.p0.i64(ptr align 4 %38, ptr align 4 %8, i64 16, i1 false), !tbaa.struct !39
  store i1 false, ptr %2, align 1
  store i32 1, ptr %5, align 4
  br label %39

39:                                               ; preds = %36, %31
  call void @llvm.lifetime.end.p0(i64 16, ptr %8) #12
  br label %40

40:                                               ; preds = %39, %16, %11
  call void @_ZN4absl18debugging_internal12_GLOBAL__N_115ComplexityGuardD2Ev(ptr noundef nonnull align 8 dereferenceable(8) %4) #12
  call void @llvm.lifetime.end.p0(i64 8, ptr %4) #12
  %41 = load i1, ptr %2, align 1
  ret i1 %41

42:                                               ; preds = %32, %17
  call void @_ZN4absl18debugging_internal12_GLOBAL__N_115ComplexityGuardD2Ev(ptr noundef nonnull align 8 dereferenceable(8) %4) #12
  call void @llvm.lifetime.end.p0(i64 8, ptr %4) #12
  br label %43

43:                                               ; preds = %42
  %44 = load ptr, ptr %6, align 8
  %45 = load i32, ptr %7, align 4
  %46 = insertvalue { ptr, i32 } poison, ptr %44, 0
  %47 = insertvalue { ptr, i32 } %46, i32 %45, 1
  resume { ptr, i32 } %47
}