; Function Attrs: mustprogress nofree nosync memory(readwrite, inaccessiblemem: none) uwtable
define internal fastcc noundef zeroext i1 @_ZN4absl18debugging_internalL29ParseUnresolvedQualifierLevelEPNS0_5StateE(ptr noundef captures(none) %0) unnamed_addr #6 personality ptr @__gxx_personality_v0 {
  %2 = alloca %"struct.absl::debugging_internal::ParseState", align 4
  %3 = getelementptr inbounds nuw i8, ptr %0, i64 20
  %4 = load i32, ptr %3, align 4, !tbaa !17
  %5 = add nsw i32 %4, 1
  store i32 %5, ptr %3, align 4, !tbaa !17
  %6 = getelementptr inbounds nuw i8, ptr %0, i64 24
  %7 = load i32, ptr %6, align 8, !tbaa !15
  %8 = add nsw i32 %7, 1
  store i32 %8, ptr %6, align 8, !tbaa !15
  %9 = icmp sgt i32 %4, 255
  %10 = icmp sgt i32 %7, 131071
  %or.cond = select i1 %9, i1 true, i1 %10
  br i1 %or.cond, label %_ZNK4absl18debugging_internal12_GLOBAL__N_115ComplexityGuard12IsTooComplexEv.exit.thread, label %11

11:                                               ; preds = %1
  %12 = tail call fastcc noundef zeroext i1 @_ZN4absl18debugging_internalL15ParseSourceNameEPNS0_5StateE(ptr noundef nonnull %0)
  br i1 %12, label %13, label %_ZN4absl18debugging_internalL13ParseSimpleIdEPNS0_5StateE.exit

13:                                               ; preds = %11
  %14 = invoke fastcc noundef zeroext i1 @_ZN4absl18debugging_internalL17ParseTemplateArgsEPNS0_5StateE(ptr noundef nonnull %0)
          to label %_ZNK4absl18debugging_internal12_GLOBAL__N_115ComplexityGuard12IsTooComplexEv.exit.thread unwind label %15

15:                                               ; preds = %13
  %16 = landingpad { ptr, i32 }
          cleanup
  br label %28

_ZN4absl18debugging_internalL13ParseSimpleIdEPNS0_5StateE.exit: ; preds = %11
  call void @llvm.lifetime.start.p0(i64 16, ptr nonnull %2)
  %17 = getelementptr inbounds nuw i8, ptr %0, i64 28
  call void @llvm.memcpy.p0.p0.i64(ptr noundef nonnull align 4 dereferenceable(16) %2, ptr noundef nonnull align 4 dereferenceable(16) %17, i64 16, i1 false), !tbaa.struct !31
  %18 = tail call fastcc noundef zeroext i1 @_ZN4absl18debugging_internalL17ParseSubstitutionEPNS0_5StateEb(ptr noundef nonnull %0, i1 noundef zeroext false)
  br i1 %18, label %19, label %24

19:                                               ; preds = %_ZN4absl18debugging_internalL13ParseSimpleIdEPNS0_5StateE.exit
  %20 = invoke fastcc noundef zeroext i1 @_ZN4absl18debugging_internalL17ParseTemplateArgsEPNS0_5StateE(ptr noundef nonnull %0)
          to label %21 unwind label %22

21:                                               ; preds = %19
  br i1 %20, label %25, label %24

22:                                               ; preds = %19
  %23 = landingpad { ptr, i32 }
          cleanup
  call void @llvm.lifetime.end.p0(i64 16, ptr nonnull %2)
  br label %28

24:                                               ; preds = %21, %_ZN4absl18debugging_internalL13ParseSimpleIdEPNS0_5StateE.exit
  call void @llvm.memcpy.p0.p0.i64(ptr noundef nonnull align 4 dereferenceable(16) %17, ptr noundef nonnull align 4 dereferenceable(16) %2, i64 16, i1 false), !tbaa.struct !31
  br label %25

25:                                               ; preds = %21, %24
  %.1 = phi i1 [ false, %24 ], [ true, %21 ]
  call void @llvm.lifetime.end.p0(i64 16, ptr nonnull %2)
  br label %_ZNK4absl18debugging_internal12_GLOBAL__N_115ComplexityGuard12IsTooComplexEv.exit.thread

_ZNK4absl18debugging_internal12_GLOBAL__N_115ComplexityGuard12IsTooComplexEv.exit.thread: ; preds = %13, %1, %25
  %.09 = phi i1 [ %.1, %25 ], [ false, %1 ], [ true, %13 ]
  %26 = load i32, ptr %3, align 4, !tbaa !17
  %27 = add nsw i32 %26, -1
  store i32 %27, ptr %3, align 4, !tbaa !17
  ret i1 %.09

28:                                               ; preds = %22, %15
  %.pn = phi { ptr, i32 } [ %23, %22 ], [ %16, %15 ]
  %29 = load i32, ptr %3, align 4, !tbaa !17
  %30 = add nsw i32 %29, -1
  store i32 %30, ptr %3, align 4, !tbaa !17
  resume { ptr, i32 } %.pn
}